target datalayout = "e-m:e-p270:32:32-p271:32:32-p272:64:64-i64:64-i128:128-f80:128-n8:16:32:64-S128"
target triple = "x86_64-pc-linux-gnu"

%struct.Jf_Par_t_ = type { i32, i32, i32, i32, i32, i32, i32, i32, i32, i32, i32, i32, i32, i32, i32, i32, i32, i32, i32, i32, i32, i32, i32, i32, i32, i32, i32, i32, i32, i32, i32, i32, i32, i32, i32, i32, i32, i32, i32, i32, i64, i64, i64, i64, i64, i64, i64, i64, i32, float, float, float, float, ptr, ptr }

; Function Attrs: nounwind uwtable
define void @Jf_ManSetDefaultPars(ptr noundef %0) #0 {
  %2 = alloca ptr, align 8
  store ptr %0, ptr %2, align 8, !tbaa !92
  %3 = load ptr, ptr %2, align 8, !tbaa !92
  call void @llvm.memset.p0.i64(ptr align 8 %3, i8 0, i64 264, i1 false)
  %4 = load ptr, ptr %2, align 8, !tbaa !92
  %5 = getelementptr inbounds nuw %struct.Jf_Par_t_, ptr %4, i32 0, i32 0
  store i32 6, ptr %5, align 8, !tbaa !95
  %6 = load ptr, ptr %2, align 8, !tbaa !92
  %7 = getelementptr inbounds nuw %struct.Jf_Par_t_, ptr %6, i32 0, i32 1
  store i32 8, ptr %7, align 4, !tbaa !163
  %8 = load ptr, ptr %2, align 8, !tbaa !92
  %9 = getelementptr inbounds nuw %struct.Jf_Par_t_, ptr %8, i32 0, i32 3
  store i32 1, ptr %9, align 4, !tbaa !191
  %10 = load ptr, ptr %2, align 8, !tbaa !92
  %11 = getelementptr inbounds nuw %struct.Jf_Par_t_, ptr %10, i32 0, i32 9
  store i32 5, ptr %11, align 4, !tbaa !86
  %12 = load ptr, ptr %2, align 8, !tbaa !92
  %13 = getelementptr inbounds nuw %struct.Jf_Par_t_, ptr %12, i32 0, i32 13
  store i32 -1, ptr %13, align 4, !tbaa !236
  %14 = load ptr, ptr %2, align 8, !tbaa !92
  %15 = getelementptr inbounds nuw %struct.Jf_Par_t_, ptr %14, i32 0, i32 14
  store i32 1, ptr %15, align 8, !tbaa !169
  %16 = load ptr, ptr %2, align 8, !tbaa !92
  %17 = getelementptr inbounds nuw %struct.Jf_Par_t_, ptr %16, i32 0, i32 18
  store i32 1, ptr %17, align 8, !tbaa !204
  %18 = load ptr, ptr %2, align 8, !tbaa !92
  %19 = getelementptr inbounds nuw %struct.Jf_Par_t_, ptr %18, i32 0, i32 21
  store i32 0, ptr %19, align 4, !tbaa !79
  %20 = load ptr, ptr %2, align 8, !tbaa !92
  %21 = getelementptr inbounds nuw %struct.Jf_Par_t_, ptr %20, i32 0, i32 22
  store i32 0, ptr %21, align 8, !tbaa !93
  %22 = load ptr, ptr %2, align 8, !tbaa !92
  %23 = getelementptr inbounds nuw %struct.Jf_Par_t_, ptr %22, i32 0, i32 23
  store i32 0, ptr %23, align 4, !tbaa !94
  %24 = load ptr, ptr %2, align 8, !tbaa !92
  %25 = getelementptr inbounds nuw %struct.Jf_Par_t_, ptr %24, i32 0, i32 24
  store i32 0, ptr %25, align 8, !tbaa !87
  %26 = load ptr, ptr %2, align 8, !tbaa !92
  %27 = getelementptr inbounds nuw %struct.Jf_Par_t_, ptr %26, i32 0, i32 29
  store i32 0, ptr %27, align 4, !tbaa !237
  %28 = load ptr, ptr %2, align 8, !tbaa !92
  %29 = getelementptr inbounds nuw %struct.Jf_Par_t_, ptr %28, i32 0, i32 34
  store i32 0, ptr %29, align 8, !tbaa !118
  %30 = load ptr, ptr %2, align 8, !tbaa !92
  %31 = getelementptr inbounds nuw %struct.Jf_Par_t_, ptr %30, i32 0, i32 35
  store i32 0, ptr %31, align 4, !tbaa !119
  %32 = load ptr, ptr %2, align 8, !tbaa !92
  %33 = getelementptr inbounds nuw %struct.Jf_Par_t_, ptr %32, i32 0, i32 36
  store i32 8, ptr %33, align 8, !tbaa !238
  %34 = load ptr, ptr %2, align 8, !tbaa !92
  %35 = getelementptr inbounds nuw %struct.Jf_Par_t_, ptr %34, i32 0, i32 37
  store i32 16, ptr %35, align 4, !tbaa !239
  ret void
}