; Function Attrs: mustprogress nofree norecurse nosync nounwind willreturn memory(argmem: write) uwtable
define void @Jf_ManSetDefaultPars(ptr noundef writeonly captures(none) initializes((0, 264)) %0) local_unnamed_addr #16 {
  %2 = getelementptr inbounds nuw i8, ptr %0, i64 8
  tail call void @llvm.memset.p0.i64(ptr noundef nonnull align 8 dereferenceable(264) %2, i8 0, i64 256, i1 false)
  store i32 6, ptr %0, align 8, !tbaa !93
  %3 = getelementptr inbounds nuw i8, ptr %0, i64 4
  store i32 8, ptr %3, align 4, !tbaa !159
  %4 = getelementptr inbounds nuw i8, ptr %0, i64 12
  store i32 1, ptr %4, align 4, !tbaa !189
  %5 = getelementptr inbounds nuw i8, ptr %0, i64 36
  store i32 5, ptr %5, align 4, !tbaa !79
  %6 = getelementptr inbounds nuw i8, ptr %0, i64 52
  store i32 -1, ptr %6, align 4, !tbaa !230
  %7 = getelementptr inbounds nuw i8, ptr %0, i64 56
  store i32 1, ptr %7, align 8, !tbaa !170
  %8 = getelementptr inbounds nuw i8, ptr %0, i64 72
  store i32 1, ptr %8, align 8, !tbaa !200
  %9 = getelementptr inbounds nuw i8, ptr %0, i64 84
  %10 = getelementptr inbounds nuw i8, ptr %0, i64 136
  store i32 0, ptr %10, align 8, !tbaa !116
  %11 = getelementptr inbounds nuw i8, ptr %0, i64 144
  tail call void @llvm.memset.p0.i64(ptr noundef nonnull align 4 dereferenceable(16) %9, i8 0, i64 16, i1 false)
  store i32 8, ptr %11, align 8, !tbaa !231
  %12 = getelementptr inbounds nuw i8, ptr %0, i64 148
  store i32 16, ptr %12, align 4, !tbaa !232
  ret void
}